target datalayout = "e-m:e-p270:32:32-p271:32:32-p272:64:64-i64:64-i128:128-f80:128-n8:16:32:64-S128"
target triple = "x86_64-pc-linux-gnu"

%struct.SRBRoot = type { ptr, ptr, i32, i32, i8, i8, i8, ptr, ptr, i32, i32, i32, i32, i32, %"class.icu_77::UnicodeString", i32, ptr, i32, i32, i32, ptr }
%"class.icu_77::UnicodeString" = type { %"class.icu_77::Replaceable", %"union.icu_77::UnicodeString::StackBufferOrFields" }
%"class.icu_77::Replaceable" = type { %"class.icu_77::UObject" }
%"class.icu_77::UObject" = type { ptr }
%"union.icu_77::UnicodeString::StackBufferOrFields" = type { %struct.anon.0, [32 x i8] }
%struct.anon.0 = type { i16, i32, i32, ptr }

; Function Attrs: mustprogress nounwind uwtable
define dso_local noundef i32 @_ZNK7SRBRoot9makeRes16Ej(ptr noundef nonnull align 8 dereferenceable(176) %0, i32 noundef %1) #4 align 2 {
  %3 = alloca i32, align 4
  %4 = alloca ptr, align 8
  %5 = alloca i32, align 4
  %6 = alloca i32, align 4
  %7 = alloca i32, align 4
  %8 = alloca i32, align 4
  store ptr %0, ptr %4, align 8, !tbaa !39
  store i32 %1, ptr %5, align 4, !tbaa !23
  %9 = load ptr, ptr %4, align 8
  %10 = load i32, ptr %5, align 4, !tbaa !23
  %11 = icmp eq i32 %10, 0
  br i1 %11, label %12, label %13

12:                                               ; preds = %2
  store i32 0, ptr %3, align 4
  br label %49

13:                                               ; preds = %2
  call void @llvm.lifetime.start.p0(i64 4, ptr %6) #3
  %14 = load i32, ptr %5, align 4, !tbaa !23
  %15 = lshr i32 %14, 28
  store i32 %15, ptr %6, align 4, !tbaa !23
  call void @llvm.lifetime.start.p0(i64 4, ptr %7) #3
  %16 = load i32, ptr %5, align 4, !tbaa !23
  %17 = and i32 %16, 268435455
  store i32 %17, ptr %7, align 4, !tbaa !23
  %18 = load i32, ptr %6, align 4, !tbaa !23
  %19 = icmp eq i32 %18, 6
  br i1 %19, label %20, label %47

20:                                               ; preds = %13
  %21 = load i32, ptr %7, align 4, !tbaa !23
  %22 = getelementptr inbounds nuw %struct.SRBRoot, ptr %9, i32 0, i32 17
  %23 = load i32, ptr %22, align 8, !tbaa !109
  %24 = icmp slt i32 %21, %23
  br i1 %24, label %25, label %33

25:                                               ; preds = %20
  %26 = load i32, ptr %7, align 4, !tbaa !23
  %27 = getelementptr inbounds nuw %struct.SRBRoot, ptr %9, i32 0, i32 18
  %28 = load i32, ptr %27, align 4, !tbaa !116
  %29 = icmp slt i32 %26, %28
  br i1 %29, label %30, label %32

30:                                               ; preds = %25
  %31 = load i32, ptr %7, align 4, !tbaa !23
  store i32 %31, ptr %3, align 4
  store i32 1, ptr %8, align 4
  br label %48

32:                                               ; preds = %25
  br label %46

33:                                               ; preds = %20
  %34 = load i32, ptr %7, align 4, !tbaa !23
  %35 = getelementptr inbounds nuw %struct.SRBRoot, ptr %9, i32 0, i32 17
  %36 = load i32, ptr %35, align 8, !tbaa !109
  %37 = sub nsw i32 %34, %36
  %38 = getelementptr inbounds nuw %struct.SRBRoot, ptr %9, i32 0, i32 18
  %39 = load i32, ptr %38, align 4, !tbaa !116
  %40 = add nsw i32 %37, %39
  store i32 %40, ptr %7, align 4, !tbaa !23
  %41 = load i32, ptr %7, align 4, !tbaa !23
  %42 = icmp sle i32 %41, 65535
  br i1 %42, label %43, label %45

43:                                               ; preds = %33
  %44 = load i32, ptr %7, align 4, !tbaa !23
  store i32 %44, ptr %3, align 4
  store i32 1, ptr %8, align 4
  br label %48

45:                                               ; preds = %33
  br label %46

46:                                               ; preds = %45, %32
  br label %47

47:                                               ; preds = %46, %13
  store i32 -1, ptr %3, align 4
  store i32 1, ptr %8, align 4
  br label %48

48:                                               ; preds = %47, %43, %30
  call void @llvm.lifetime.end.p0(i64 4, ptr %7) #3
  call void @llvm.lifetime.end.p0(i64 4, ptr %6) #3
  br label %49

49:                                               ; preds = %48, %12
  %50 = load i32, ptr %3, align 4
  ret i32 %50
}