; Function Attrs: mustprogress nofree norecurse nosync nounwind willreturn memory(argmem: read) uwtable
define dso_local noundef range(i32 -2147483648, 268435456) i32 @_ZNK7SRBRoot9makeRes16Ej(ptr noundef nonnull readonly align 8 captures(none) dereferenceable(176) %0, i32 noundef %1) local_unnamed_addr #18 align 2 {
  %3 = icmp eq i32 %1, 0
  br i1 %3, label %22, label %4

4:                                                ; preds = %2
  %5 = and i32 %1, 268435455
  %.mask = and i32 %1, -268435456
  %6 = icmp eq i32 %.mask, 1610612736
  br i1 %6, label %7, label %21

7:                                                ; preds = %4
  %8 = getelementptr inbounds nuw i8, ptr %0, i64 152
  %9 = load i32, ptr %8, align 8, !tbaa !68
  %10 = icmp slt i32 %5, %9
  br i1 %10, label %11, label %15

11:                                               ; preds = %7
  %12 = getelementptr inbounds nuw i8, ptr %0, i64 156
  %13 = load i32, ptr %12, align 4, !tbaa !76
  %14 = icmp slt i32 %5, %13
  br i1 %14, label %22, label %21

15:                                               ; preds = %7
  %16 = sub nsw i32 %5, %9
  %17 = getelementptr inbounds nuw i8, ptr %0, i64 156
  %18 = load i32, ptr %17, align 4, !tbaa !76
  %19 = add nsw i32 %18, %16
  %20 = icmp slt i32 %19, 65536
  br i1 %20, label %22, label %21

21:                                               ; preds = %11, %15, %4
  br label %22

22:                                               ; preds = %21, %11, %15, %2
  %.0 = phi i32 [ 0, %2 ], [ -1, %21 ], [ %5, %11 ], [ %19, %15 ]
  ret i32 %.0
}